; Function Attrs: mustprogress uwtable
define noundef signext range(i8 0, 2) i8 @_ZNK6icu_7717RuleBasedTimeZone14inDaylightTimeEdR10UErrorCode(ptr noundef nonnull align 8 dereferenceable(105) %0, double noundef %1, ptr noundef nonnull align 4 dereferenceable(4) %2) unnamed_addr #1 align 2 {
  %4 = alloca i32, align 4
  %5 = alloca i32, align 4
  %6 = load i32, ptr %2, align 4, !tbaa !21
  %7 = icmp slt i32 %6, 1
  br i1 %7, label %8, label %13

8:                                                ; preds = %3
  call void @llvm.lifetime.start.p0(i64 4, ptr nonnull %4) #14
  call void @llvm.lifetime.start.p0(i64 4, ptr nonnull %5) #14
  %9 = load ptr, ptr %0, align 8, !tbaa !3
  %10 = getelementptr inbounds nuw i8, ptr %9, i64 48
  %11 = load ptr, ptr %10, align 8
  call void %11(ptr noundef nonnull align 8 dereferenceable(105) %0, double noundef %1, i8 noundef signext 0, ptr noundef nonnull align 4 dereferenceable(4) %4, ptr noundef nonnull align 4 dereferenceable(4) %5, ptr noundef nonnull align 4 dereferenceable(4) %2)
  %12 = load i32, ptr %5, align 4, !tbaa !48
  %.not4 = icmp ne i32 %12, 0
  %. = zext i1 %.not4 to i8
  call void @llvm.lifetime.end.p0(i64 4, ptr nonnull %5) #14
  call void @llvm.lifetime.end.p0(i64 4, ptr nonnull %4) #14
  br label %13

13:                                               ; preds = %3, %8
  %.0 = phi i8 [ %., %8 ], [ 0, %3 ]
  ret i8 %.0
}